target datalayout = "e-m:e-p270:32:32-p271:32:32-p272:64:64-i64:64-i128:128-f80:128-n8:16:32:64-S128"
target triple = "x86_64-pc-linux-gnu"

%"class.std::unique_ptr.31" = type { %"struct.std::__uniq_ptr_data.32" }
%"struct.std::__uniq_ptr_data.32" = type { %"class.std::__uniq_ptr_impl.33" }
%"class.std::__uniq_ptr_impl.33" = type { %"class.std::tuple.34" }
%"class.std::tuple.34" = type { %"struct.std::_Tuple_impl.35" }
%"struct.std::_Tuple_impl.35" = type { %"struct.std::_Head_base.38" }
%"struct.std::_Head_base.38" = type { ptr }

; Function Attrs: mustprogress nounwind uwtable
define linkonce_odr noundef nonnull align 1 dereferenceable(1) ptr @_ZNSt10_Head_baseILm1ESt14default_deleteIN3gmx17IOptionValueStoreIiEEELb1EE7_M_headERS5_(ptr noundef nonnull align 1 dereferenceable(1) %0) #2 comdat align 2 {
  %2 = alloca ptr, align 8
  store ptr %0, ptr %2, align 8, !tbaa !621
  %3 = load ptr, ptr %2, align 8, !tbaa !621
  ret ptr %3
}

; Function Attrs: mustprogress nounwind uwtable
define linkonce_odr noundef nonnull align 1 dereferenceable(1) ptr @_ZNSt11_Tuple_implILm1EJSt14default_deleteIN3gmx17IOptionValueStoreIiEEEEE7_M_headERS5_(ptr noundef nonnull align 1 dereferenceable(1) %0) #2 comdat align 2 {
  %2 = alloca ptr, align 8
  store ptr %0, ptr %2, align 8, !tbaa !616
  %3 = load ptr, ptr %2, align 8, !tbaa !616
  %4 = call noundef nonnull align 1 dereferenceable(1) ptr @_ZNSt10_Head_baseILm1ESt14default_deleteIN3gmx17IOptionValueStoreIiEEELb1EE7_M_headERS5_(ptr noundef nonnull align 1 dereferenceable(1) %3) #19
  ret ptr %4
}

; Function Attrs: mustprogress nounwind uwtable
define linkonce_odr noundef nonnull align 8 dereferenceable(8) ptr @_ZNSt10_Head_baseILm0EPN3gmx17IOptionValueStoreIiEELb0EE7_M_headERS4_(ptr noundef nonnull align 8 dereferenceable(8) %0) #2 comdat align 2 {
  %2 = alloca ptr, align 8
  store ptr %0, ptr %2, align 8, !tbaa !618
  %3 = load ptr, ptr %2, align 8, !tbaa !618
  %4 = getelementptr inbounds nuw %"struct.std::_Head_base.38", ptr %3, i32 0, i32 0
  ret ptr %4
}

; Function Attrs: mustprogress nounwind uwtable
define linkonce_odr void @_ZNSt11_Tuple_implILm1EJSt14default_deleteIN3gmx17IOptionValueStoreIiEEEEEC2EOS5_(ptr noundef nonnull align 1 dereferenceable(1) %0, ptr noundef nonnull align 1 dereferenceable(1) %1) unnamed_addr #2 comdat align 2 {
  %3 = alloca ptr, align 8
  %4 = alloca ptr, align 8
  store ptr %0, ptr %3, align 8, !tbaa !616
  store ptr %1, ptr %4, align 8, !tbaa !616
  ret void
}

; Function Attrs: mustprogress nounwind uwtable
define linkonce_odr noundef nonnull align 1 dereferenceable(1) ptr @_ZSt12__get_helperILm1ESt14default_deleteIN3gmx17IOptionValueStoreIiEEEJEERT0_RSt11_Tuple_implIXT_EJS5_DpT1_EE(ptr noundef nonnull align 1 dereferenceable(1) %0) #2 comdat {
  %2 = alloca ptr, align 8
  store ptr %0, ptr %2, align 8, !tbaa !616
  %3 = load ptr, ptr %2, align 8, !tbaa !616
  %4 = call noundef nonnull align 1 dereferenceable(1) ptr @_ZNSt11_Tuple_implILm1EJSt14default_deleteIN3gmx17IOptionValueStoreIiEEEEE7_M_headERS5_(ptr noundef nonnull align 1 dereferenceable(1) %3) #19
  ret ptr %4
}

; Function Attrs: mustprogress nounwind uwtable
define linkonce_odr noundef nonnull align 8 dereferenceable(8) ptr @_ZNSt11_Tuple_implILm0EJPN3gmx17IOptionValueStoreIiEESt14default_deleteIS2_EEE7_M_headERS6_(ptr noundef nonnull align 8 dereferenceable(8) %0) #2 comdat align 2 {
  %2 = alloca ptr, align 8
  store ptr %0, ptr %2, align 8, !tbaa !614
  %3 = load ptr, ptr %2, align 8, !tbaa !614
  %4 = call noundef nonnull align 8 dereferenceable(8) ptr @_ZNSt10_Head_baseILm0EPN3gmx17IOptionValueStoreIiEELb0EE7_M_headERS4_(ptr noundef nonnull align 8 dereferenceable(8) %3) #19
  ret ptr %4
}

; Function Attrs: mustprogress nounwind uwtable
define linkonce_odr void @_ZNSt11_Tuple_implILm0EJPN3gmx17IOptionValueStoreIiEESt14default_deleteIS2_EEEC2EOS6_(ptr noundef nonnull align 8 dereferenceable(8) %0, ptr noundef nonnull align 8 dereferenceable(8) %1) unnamed_addr #2 comdat align 2 {
  %3 = alloca ptr, align 8
  %4 = alloca ptr, align 8
  store ptr %0, ptr %3, align 8, !tbaa !614
  store ptr %1, ptr %4, align 8, !tbaa !614
  %5 = load ptr, ptr %3, align 8
  %6 = load ptr, ptr %4, align 8, !tbaa !614
  call void @_ZNSt11_Tuple_implILm1EJSt14default_deleteIN3gmx17IOptionValueStoreIiEEEEEC2EOS5_(ptr noundef nonnull align 1 dereferenceable(1) %5, ptr noundef nonnull align 1 dereferenceable(1) %6) #19
  %7 = load ptr, ptr %4, align 8, !tbaa !614
  call void @llvm.memcpy.p0.p0.i64(ptr align 8 %5, ptr align 8 %7, i64 8, i1 false), !tbaa.struct !1042
  ret void
}

; Function Attrs: mustprogress nounwind uwtable
define linkonce_odr noundef nonnull align 1 dereferenceable(1) ptr @_ZSt3getILm1EJPN3gmx17IOptionValueStoreIiEESt14default_deleteIS2_EEERNSt13tuple_elementIXT_ESt5tupleIJDpT0_EEE4typeERSA_(ptr noundef nonnull align 8 dereferenceable(8) %0) #2 comdat {
  %2 = alloca ptr, align 8
  store ptr %0, ptr %2, align 8, !tbaa !612
  %3 = load ptr, ptr %2, align 8, !tbaa !612
  %4 = call noundef nonnull align 1 dereferenceable(1) ptr @_ZSt12__get_helperILm1ESt14default_deleteIN3gmx17IOptionValueStoreIiEEEJEERT0_RSt11_Tuple_implIXT_EJS5_DpT1_EE(ptr noundef nonnull align 1 dereferenceable(1) %3) #19
  ret ptr %4
}

; Function Attrs: mustprogress nounwind uwtable
define linkonce_odr noundef nonnull align 8 dereferenceable(8) ptr @_ZSt12__get_helperILm0EPN3gmx17IOptionValueStoreIiEEJSt14default_deleteIS2_EEERT0_RSt11_Tuple_implIXT_EJS6_DpT1_EE(ptr noundef nonnull align 8 dereferenceable(8) %0) #2 comdat {
  %2 = alloca ptr, align 8
  store ptr %0, ptr %2, align 8, !tbaa !614
  %3 = load ptr, ptr %2, align 8, !tbaa !614
  %4 = call noundef nonnull align 8 dereferenceable(8) ptr @_ZNSt11_Tuple_implILm0EJPN3gmx17IOptionValueStoreIiEESt14default_deleteIS2_EEE7_M_headERS6_(ptr noundef nonnull align 8 dereferenceable(8) %3) #19
  ret ptr %4
}

; Function Attrs: mustprogress nounwind uwtable
define linkonce_odr void @_ZNSt5tupleIJPN3gmx17IOptionValueStoreIiEESt14default_deleteIS2_EEEC2EOS6_(ptr noundef nonnull align 8 dereferenceable(8) %0, ptr noundef nonnull align 8 dereferenceable(8) %1) unnamed_addr #2 comdat align 2 {
  %3 = alloca ptr, align 8
  %4 = alloca ptr, align 8
  store ptr %0, ptr %3, align 8, !tbaa !612
  store ptr %1, ptr %4, align 8, !tbaa !612
  %5 = load ptr, ptr %3, align 8
  %6 = load ptr, ptr %4, align 8, !tbaa !612
  call void @_ZNSt11_Tuple_implILm0EJPN3gmx17IOptionValueStoreIiEESt14default_deleteIS2_EEEC2EOS6_(ptr noundef nonnull align 8 dereferenceable(8) %5, ptr noundef nonnull align 8 dereferenceable(8) %6) #19
  ret void
}

; Function Attrs: mustprogress nounwind uwtable
define linkonce_odr noundef nonnull align 1 dereferenceable(1) ptr @_ZNSt15__uniq_ptr_implIN3gmx17IOptionValueStoreIiEESt14default_deleteIS2_EE10_M_deleterEv(ptr noundef nonnull align 8 dereferenceable(8) %0) #2 comdat align 2 {
  %2 = alloca ptr, align 8
  store ptr %0, ptr %2, align 8, !tbaa !610
  %3 = load ptr, ptr %2, align 8
  %4 = getelementptr inbounds nuw %"class.std::__uniq_ptr_impl.33", ptr %3, i32 0, i32 0
  %5 = call noundef nonnull align 1 dereferenceable(1) ptr @_ZSt3getILm1EJPN3gmx17IOptionValueStoreIiEESt14default_deleteIS2_EEERNSt13tuple_elementIXT_ESt5tupleIJDpT0_EEE4typeERSA_(ptr noundef nonnull align 8 dereferenceable(8) %4) #19
  ret ptr %5
}

; Function Attrs: mustprogress nounwind uwtable
define linkonce_odr noundef nonnull align 8 dereferenceable(8) ptr @_ZSt3getILm0EJPN3gmx17IOptionValueStoreIiEESt14default_deleteIS2_EEERNSt13tuple_elementIXT_ESt5tupleIJDpT0_EEE4typeERSA_(ptr noundef nonnull align 8 dereferenceable(8) %0) #2 comdat {
  %2 = alloca ptr, align 8
  store ptr %0, ptr %2, align 8, !tbaa !612
  %3 = load ptr, ptr %2, align 8, !tbaa !612
  %4 = call noundef nonnull align 8 dereferenceable(8) ptr @_ZSt12__get_helperILm0EPN3gmx17IOptionValueStoreIiEEJSt14default_deleteIS2_EEERT0_RSt11_Tuple_implIXT_EJS6_DpT1_EE(ptr noundef nonnull align 8 dereferenceable(8) %3) #19
  ret ptr %4
}

; Function Attrs: mustprogress nounwind uwtable
define linkonce_odr void @_ZNSt15__uniq_ptr_implIN3gmx17IOptionValueStoreIiEESt14default_deleteIS2_EEC2EOS5_(ptr noundef nonnull align 8 dereferenceable(8) %0, ptr noundef nonnull align 8 dereferenceable(8) %1) unnamed_addr #2 comdat align 2 {
  %3 = alloca ptr, align 8
  %4 = alloca ptr, align 8
  store ptr %0, ptr %3, align 8, !tbaa !610
  store ptr %1, ptr %4, align 8, !tbaa !610
  %5 = load ptr, ptr %3, align 8
  %6 = getelementptr inbounds nuw %"class.std::__uniq_ptr_impl.33", ptr %5, i32 0, i32 0
  %7 = load ptr, ptr %4, align 8, !tbaa !610
  %8 = getelementptr inbounds nuw %"class.std::__uniq_ptr_impl.33", ptr %7, i32 0, i32 0
  call void @_ZNSt5tupleIJPN3gmx17IOptionValueStoreIiEESt14default_deleteIS2_EEEC2EOS6_(ptr noundef nonnull align 8 dereferenceable(8) %6, ptr noundef nonnull align 8 dereferenceable(8) %8) #19
  %9 = load ptr, ptr %4, align 8, !tbaa !610
  %10 = call noundef nonnull align 8 dereferenceable(8) ptr @_ZNSt15__uniq_ptr_implIN3gmx17IOptionValueStoreIiEESt14default_deleteIS2_EE6_M_ptrEv(ptr noundef nonnull align 8 dereferenceable(8) %9) #19
  store ptr null, ptr %10, align 8, !tbaa !332
  ret void
}

; Function Attrs: noinline noreturn nounwind uwtable
define linkonce_odr hidden void @__clang_call_terminate(ptr noundef %0) #10 comdat {
  %2 = call ptr @__cxa_begin_catch(ptr %0) #19
  call void @_ZSt9terminatev() #23
  unreachable
}

; Function Attrs: mustprogress nounwind uwtable
define linkonce_odr void @_ZNKSt14default_deleteIN3gmx17IOptionValueStoreIiEEEclEPS2_(ptr noundef nonnull align 1 dereferenceable(1) %0, ptr noundef %1) #2 comdat align 2 {
  %3 = alloca ptr, align 8
  %4 = alloca ptr, align 8
  store ptr %0, ptr %3, align 8, !tbaa !1065
  store ptr %1, ptr %4, align 8, !tbaa !332
  %5 = load ptr, ptr %4, align 8, !tbaa !332
  %6 = icmp eq ptr %5, null
  br i1 %6, label %11, label %7

7:                                                ; preds = %2
  %8 = load ptr, ptr %5, align 8, !tbaa !33
  %9 = getelementptr inbounds ptr, ptr %8, i64 1
  %10 = load ptr, ptr %9, align 8
  call void %10(ptr noundef nonnull align 8 dereferenceable(8) %5) #19
  br label %11

11:                                               ; preds = %7, %2
  ret void
}

; Function Attrs: mustprogress nounwind uwtable
define linkonce_odr noundef nonnull align 1 dereferenceable(1) ptr @_ZNSt10unique_ptrIN3gmx17IOptionValueStoreIiEESt14default_deleteIS2_EE11get_deleterEv(ptr noundef nonnull align 8 dereferenceable(8) %0) #2 comdat align 2 {
  %2 = alloca ptr, align 8
  store ptr %0, ptr %2, align 8, !tbaa !300
  %3 = load ptr, ptr %2, align 8
  %4 = getelementptr inbounds nuw %"class.std::unique_ptr.31", ptr %3, i32 0, i32 0
  %5 = call noundef nonnull align 1 dereferenceable(1) ptr @_ZNSt15__uniq_ptr_implIN3gmx17IOptionValueStoreIiEESt14default_deleteIS2_EE10_M_deleterEv(ptr noundef nonnull align 8 dereferenceable(8) %4) #19
  ret ptr %5
}

; Function Attrs: mustprogress nounwind uwtable
define linkonce_odr noundef nonnull align 8 dereferenceable(8) ptr @_ZNSt15__uniq_ptr_implIN3gmx17IOptionValueStoreIiEESt14default_deleteIS2_EE6_M_ptrEv(ptr noundef nonnull align 8 dereferenceable(8) %0) #2 comdat align 2 {
  %2 = alloca ptr, align 8
  store ptr %0, ptr %2, align 8, !tbaa !610
  %3 = load ptr, ptr %2, align 8
  %4 = getelementptr inbounds nuw %"class.std::__uniq_ptr_impl.33", ptr %3, i32 0, i32 0
  %5 = call noundef nonnull align 8 dereferenceable(8) ptr @_ZSt3getILm0EJPN3gmx17IOptionValueStoreIiEESt14default_deleteIS2_EEERNSt13tuple_elementIXT_ESt5tupleIJDpT0_EEE4typeERSA_(ptr noundef nonnull align 8 dereferenceable(8) %4) #19
  ret ptr %5
}

; Function Attrs: mustprogress nounwind uwtable
define linkonce_odr void @_ZNSt15__uniq_ptr_dataIN3gmx17IOptionValueStoreIiEESt14default_deleteIS2_ELb1ELb1EEC2EOS5_(ptr noundef nonnull align 8 dereferenceable(8) %0, ptr noundef nonnull align 8 dereferenceable(8) %1) unnamed_addr #2 comdat align 2 {
  %3 = alloca ptr, align 8
  %4 = alloca ptr, align 8
  store ptr %0, ptr %3, align 8, !tbaa !608
  store ptr %1, ptr %4, align 8, !tbaa !608
  %5 = load ptr, ptr %3, align 8
  %6 = load ptr, ptr %4, align 8, !tbaa !608
  call void @_ZNSt15__uniq_ptr_implIN3gmx17IOptionValueStoreIiEESt14default_deleteIS2_EEC2EOS5_(ptr noundef nonnull align 8 dereferenceable(8) %5, ptr noundef nonnull align 8 dereferenceable(8) %6) #19
  ret void
}

; Function Attrs: mustprogress nounwind uwtable
define linkonce_odr void @_ZNSt10unique_ptrIN3gmx17IOptionValueStoreIiEESt14default_deleteIS2_EED2Ev(ptr noundef nonnull align 8 dereferenceable(8) %0) unnamed_addr #2 comdat align 2 personality ptr @__gxx_personality_v0 {
  %2 = alloca ptr, align 8
  %3 = alloca ptr, align 8
  store ptr %0, ptr %2, align 8, !tbaa !300
  %4 = load ptr, ptr %2, align 8
  call void @llvm.lifetime.start.p0(i64 8, ptr %3) #19
  %5 = getelementptr inbounds nuw %"class.std::unique_ptr.31", ptr %4, i32 0, i32 0
  %6 = call noundef nonnull align 8 dereferenceable(8) ptr @_ZNSt15__uniq_ptr_implIN3gmx17IOptionValueStoreIiEESt14default_deleteIS2_EE6_M_ptrEv(ptr noundef nonnull align 8 dereferenceable(8) %5) #19
  store ptr %6, ptr %3, align 8, !tbaa !330
  %7 = load ptr, ptr %3, align 8, !tbaa !330
  %8 = load ptr, ptr %7, align 8, !tbaa !332
  %9 = icmp ne ptr %8, null
  br i1 %9, label %10, label %15

10:                                               ; preds = %1
  %11 = call noundef nonnull align 1 dereferenceable(1) ptr @_ZNSt10unique_ptrIN3gmx17IOptionValueStoreIiEESt14default_deleteIS2_EE11get_deleterEv(ptr noundef nonnull align 8 dereferenceable(8) %4) #19
  %12 = load ptr, ptr %3, align 8, !tbaa !330
  %13 = load ptr, ptr %12, align 8, !tbaa !332
  invoke void @_ZNKSt14default_deleteIN3gmx17IOptionValueStoreIiEEEclEPS2_(ptr noundef nonnull align 1 dereferenceable(1) %11, ptr noundef %13)
          to label %14 unwind label %17

14:                                               ; preds = %10
  br label %15

15:                                               ; preds = %14, %1
  %16 = load ptr, ptr %3, align 8, !tbaa !330
  store ptr null, ptr %16, align 8, !tbaa !332
  call void @llvm.lifetime.end.p0(i64 8, ptr %3) #19
  ret void

17:                                               ; preds = %10
  %18 = landingpad { ptr, i32 }
          catch ptr null
  %19 = extractvalue { ptr, i32 } %18, 0
  call void @__clang_call_terminate(ptr %19) #23
  unreachable
}

; Function Attrs: mustprogress nounwind uwtable
define linkonce_odr void @_ZNSt10unique_ptrIN3gmx17IOptionValueStoreIiEESt14default_deleteIS2_EEC2EOS5_(ptr noundef nonnull align 8 dereferenceable(8) %0, ptr noundef nonnull align 8 dereferenceable(8) %1) unnamed_addr #2 comdat align 2 {
  %3 = alloca ptr, align 8
  %4 = alloca ptr, align 8
  store ptr %0, ptr %3, align 8, !tbaa !300
  store ptr %1, ptr %4, align 8, !tbaa !300
  %5 = load ptr, ptr %3, align 8
  %6 = getelementptr inbounds nuw %"class.std::unique_ptr.31", ptr %5, i32 0, i32 0
  %7 = load ptr, ptr %4, align 8, !tbaa !300
  %8 = getelementptr inbounds nuw %"class.std::unique_ptr.31", ptr %7, i32 0, i32 0
  call void @_ZNSt15__uniq_ptr_dataIN3gmx17IOptionValueStoreIiEESt14default_deleteIS2_ELb1ELb1EEC2EOS5_(ptr noundef nonnull align 8 dereferenceable(8) %6, ptr noundef nonnull align 8 dereferenceable(8) %8) #19
  ret void
}

; Function Attrs: mustprogress uwtable
define noundef ptr @_ZN3gmx8internal23createEnumOptionStorageERKNS_14AbstractOptionEPKPKciiiSt10unique_ptrINS_17IOptionValueStoreIiEESt14default_deleteISA_EE(ptr noundef nonnull align 8 dereferenceable(48) %0, ptr noundef %1, i32 noundef %2, i32 noundef %3, i32 noundef %4, ptr noundef %5) #0 personality ptr @__gxx_personality_v0 {
  %7 = alloca ptr, align 8
  %8 = alloca ptr, align 8
  %9 = alloca i32, align 4
  %10 = alloca i32, align 4
  %11 = alloca i32, align 4
  %12 = alloca ptr, align 8
  %13 = alloca %"class.std::unique_ptr.31", align 8
  %14 = alloca ptr, align 8
  %15 = alloca i32, align 4
  %16 = alloca i1, align 1
  store ptr %0, ptr %7, align 8, !tbaa !298
  store ptr %1, ptr %8, align 8, !tbaa !279
  store i32 %2, ptr %9, align 4, !tbaa !48
  store i32 %3, ptr %10, align 4, !tbaa !48
  store i32 %4, ptr %11, align 4, !tbaa !48
  store ptr %5, ptr %12, align 8, !tbaa !300
  %17 = call noalias noundef nonnull ptr @_Znwm(i64 noundef 240) #21
  store i1 true, ptr %16, align 1
  %18 = load ptr, ptr %7, align 8, !tbaa !298
  %19 = load ptr, ptr %8, align 8, !tbaa !279
  %20 = load i32, ptr %9, align 4, !tbaa !48
  %21 = load i32, ptr %10, align 4, !tbaa !48
  %22 = load i32, ptr %11, align 4, !tbaa !48
  call void @_ZNSt10unique_ptrIN3gmx17IOptionValueStoreIiEESt14default_deleteIS2_EEC2EOS5_(ptr noundef nonnull align 8 dereferenceable(8) %13, ptr noundef nonnull align 8 dereferenceable(8) %5) #19
  invoke void @_ZN3gmx17EnumOptionStorageC1ERKNS_14AbstractOptionEPKPKciiiSt10unique_ptrINS_17IOptionValueStoreIiEESt14default_deleteISA_EE(ptr noundef nonnull align 8 dereferenceable(240) %17, ptr noundef nonnull align 8 dereferenceable(48) %18, ptr noundef %19, i32 noundef %20, i32 noundef %21, i32 noundef %22, ptr noundef %13)
          to label %23 unwind label %24

23:                                               ; preds = %6
  store i1 false, ptr %16, align 1
  call void @_ZNSt10unique_ptrIN3gmx17IOptionValueStoreIiEESt14default_deleteIS2_EED2Ev(ptr noundef nonnull align 8 dereferenceable(8) %13) #19
  ret ptr %17

24:                                               ; preds = %6
  %25 = landingpad { ptr, i32 }
          cleanup
  %26 = extractvalue { ptr, i32 } %25, 0
  store ptr %26, ptr %14, align 8
  %27 = extractvalue { ptr, i32 } %25, 1
  store i32 %27, ptr %15, align 4
  call void @_ZNSt10unique_ptrIN3gmx17IOptionValueStoreIiEESt14default_deleteIS2_EED2Ev(ptr noundef nonnull align 8 dereferenceable(8) %13) #19
  %28 = load i1, ptr %16, align 1
  br i1 %28, label %29, label %30

29:                                               ; preds = %24
  call void @_ZdlPvm(ptr noundef %17, i64 noundef 240) #22
  br label %30

30:                                               ; preds = %29, %24
  br label %31

31:                                               ; preds = %30
  %32 = load ptr, ptr %14, align 8
  %33 = load i32, ptr %15, align 4
  %34 = insertvalue { ptr, i32 } poison, ptr %32, 0
  %35 = insertvalue { ptr, i32 } %34, i32 %33, 1
  resume { ptr, i32 } %35
}