; Function Attrs: mustprogress uwtable
define noundef nonnull ptr @_ZN3gmx8internal23createEnumOptionStorageERKNS_14AbstractOptionEPKPKciiiSt10unique_ptrINS_17IOptionValueStoreIiEESt14default_deleteISA_EE(ptr noundef nonnull align 8 dereferenceable(48) %0, ptr noundef %1, i32 noundef %2, i32 noundef %3, i32 noundef %4, ptr noundef captures(none) %5) local_unnamed_addr #2 personality ptr @__gxx_personality_v0 {
  %7 = alloca %"class.std::unique_ptr.31", align 8
  %8 = tail call noalias noundef nonnull dereferenceable(240) ptr @_Znwm(i64 noundef 240) #29
  %9 = load i64, ptr %5, align 8, !tbaa !292
  store i64 %9, ptr %7, align 8, !tbaa !292
  store ptr null, ptr %5, align 8, !tbaa !292
  invoke void @_ZN3gmx17EnumOptionStorageC1ERKNS_14AbstractOptionEPKPKciiiSt10unique_ptrINS_17IOptionValueStoreIiEESt14default_deleteISA_EE(ptr noundef nonnull align 8 dereferenceable(240) %8, ptr noundef nonnull align 8 dereferenceable(48) %0, ptr noundef %1, i32 noundef %2, i32 noundef %3, i32 noundef %4, ptr noundef nonnull %7)
          to label %10 unwind label %15

10:                                               ; preds = %6
  %11 = load ptr, ptr %7, align 8, !tbaa !292
  %.not.i = icmp eq ptr %11, null
  br i1 %.not.i, label %_ZNSt10unique_ptrIN3gmx17IOptionValueStoreIiEESt14default_deleteIS2_EED2Ev.exit, label %_ZNKSt14default_deleteIN3gmx17IOptionValueStoreIiEEEclEPS2_.exit.i

_ZNKSt14default_deleteIN3gmx17IOptionValueStoreIiEEEclEPS2_.exit.i: ; preds = %10
  %12 = load ptr, ptr %11, align 8, !tbaa !27
  %13 = getelementptr inbounds nuw i8, ptr %12, i64 8
  %14 = load ptr, ptr %13, align 8
  call void %14(ptr noundef nonnull align 8 dereferenceable(8) %11) #28
  br label %_ZNSt10unique_ptrIN3gmx17IOptionValueStoreIiEESt14default_deleteIS2_EED2Ev.exit

_ZNSt10unique_ptrIN3gmx17IOptionValueStoreIiEESt14default_deleteIS2_EED2Ev.exit: ; preds = %10, %_ZNKSt14default_deleteIN3gmx17IOptionValueStoreIiEEEclEPS2_.exit.i
  ret ptr %8

15:                                               ; preds = %6
  %16 = landingpad { ptr, i32 }
          cleanup
  %17 = load ptr, ptr %7, align 8, !tbaa !292
  %.not.i7 = icmp eq ptr %17, null
  br i1 %.not.i7, label %_ZNSt10unique_ptrIN3gmx17IOptionValueStoreIiEESt14default_deleteIS2_EED2Ev.exit9, label %_ZNKSt14default_deleteIN3gmx17IOptionValueStoreIiEEEclEPS2_.exit.i8

_ZNKSt14default_deleteIN3gmx17IOptionValueStoreIiEEEclEPS2_.exit.i8: ; preds = %15
  %18 = load ptr, ptr %17, align 8, !tbaa !27
  %19 = getelementptr inbounds nuw i8, ptr %18, i64 8
  %20 = load ptr, ptr %19, align 8
  call void %20(ptr noundef nonnull align 8 dereferenceable(8) %17) #28
  br label %_ZNSt10unique_ptrIN3gmx17IOptionValueStoreIiEESt14default_deleteIS2_EED2Ev.exit9

_ZNSt10unique_ptrIN3gmx17IOptionValueStoreIiEESt14default_deleteIS2_EED2Ev.exit9: ; preds = %15, %_ZNKSt14default_deleteIN3gmx17IOptionValueStoreIiEEEclEPS2_.exit.i8
  store ptr null, ptr %7, align 8, !tbaa !292
  call void @_ZdlPvm(ptr noundef nonnull %8, i64 noundef 240) #30
  resume { ptr, i32 } %16
}